# SymbolsHelper-Confirmed: 15.07.90 amd64
libKF5Holidays.so.5 libkf5holidays5 #MINVER#
 _ZN9KHolidays10LunarPhase11phaseAtDateERK5QDate@Base 15.07.90
 _ZN9KHolidays10LunarPhase15phaseNameAtDateERK5QDate@Base 15.07.90
 _ZN9KHolidays10LunarPhase9phaseNameENS0_5PhaseE@Base 15.07.90
 _ZN9KHolidays10SunRiseSet10utcSunriseERK5QDatedd@Base 15.07.90
 _ZN9KHolidays10SunRiseSet9utcSunsetERK5QDatedd@Base 15.07.90
 _ZN9KHolidays12AstroSeasons10seasonNameENS0_6SeasonE@Base 15.07.90
 _ZN9KHolidays12AstroSeasons12seasonAtDateERK5QDate@Base 15.07.90
 _ZN9KHolidays12AstroSeasons16seasonNameAtDateERK5QDate@Base 15.07.90
 _ZN9KHolidays13HolidayRegion11countryCodeERK7QString@Base 15.07.90
 _ZN9KHolidays13HolidayRegion11descriptionERK7QString@Base 15.07.90
 _ZN9KHolidays13HolidayRegion11regionCodesEv@Base 15.07.90
 _ZN9KHolidays13HolidayRegion12languageCodeERK7QString@Base 15.07.90
 _ZN9KHolidays13HolidayRegion17defaultRegionCodeERK7QStringS3_@Base 15.07.90
 _ZN9KHolidays13HolidayRegion4nameERK7QString@Base 15.07.90
 _ZN9KHolidays13HolidayRegion7isValidERK7QString@Base 15.07.90
 _ZN9KHolidays13HolidayRegion9locationsEv@Base 15.07.90
 _ZN9KHolidays13HolidayRegionC1ERK7QString@Base 15.07.90
 _ZN9KHolidays13HolidayRegionC1ERK9QFileInfo@Base 15.07.90
 _ZN9KHolidays13HolidayRegionC2ERK7QString@Base 15.07.90
 _ZN9KHolidays13HolidayRegionC2ERK9QFileInfo@Base 15.07.90
 _ZN9KHolidays13HolidayRegionD1Ev@Base 15.07.90
 _ZN9KHolidays13HolidayRegionD2Ev@Base 15.07.90
 _ZN9KHolidays21HolidayRegionSelector11itemChangedEP15QTreeWidgetItemi@Base 15.07.90
 _ZN9KHolidays21HolidayRegionSelector11itemChangedEi@Base 15.07.90
 _ZN9KHolidays21HolidayRegionSelector11qt_metacallEN11QMetaObject4CallEiPPv@Base 15.07.90
 _ZN9KHolidays21HolidayRegionSelector11qt_metacastEPKc@Base 15.07.90
 _ZN9KHolidays21HolidayRegionSelector14clearSelectionEv@Base 15.07.90
 _ZN9KHolidays21HolidayRegionSelector15setSearchHiddenEb@Base 15.07.90
 _ZN9KHolidays21HolidayRegionSelector16selectionChangedEv@Base 15.07.90
 _ZN9KHolidays21HolidayRegionSelector16setSelectionModeEN17QAbstractItemView13SelectionModeE@Base 15.07.90
 _ZN9KHolidays21HolidayRegionSelector16staticMetaObjectE@Base 15.07.90
 _ZN9KHolidays21HolidayRegionSelector17setLanguageFilterERK11QStringList@Base 15.07.90
 _ZN9KHolidays21HolidayRegionSelector17setLanguageHiddenEb@Base 15.07.90
 _ZN9KHolidays21HolidayRegionSelector17setRegionUseFlagsERK7QString6QFlagsINS0_13RegionUseFlagEE@Base 15.07.90
 _ZN9KHolidays21HolidayRegionSelector18setSelectionStatusERK7QStringNS0_15SelectionStatusE@Base 15.07.90
 _ZN9KHolidays21HolidayRegionSelector20setDescriptionHiddenEb@Base 15.07.90
 _ZN9KHolidays21HolidayRegionSelector24setRegionUseFlagsEnabledEb@Base 15.07.90
 _ZN9KHolidays21HolidayRegionSelectorC1EP7QWidget@Base 15.07.90
 _ZN9KHolidays21HolidayRegionSelectorC2EP7QWidget@Base 15.07.90
 _ZN9KHolidays21HolidayRegionSelectorD0Ev@Base 15.07.90
 _ZN9KHolidays21HolidayRegionSelectorD1Ev@Base 15.07.90
 _ZN9KHolidays21HolidayRegionSelectorD2Ev@Base 15.07.90
 _ZN9KHolidays6Zodiac10signSymbolENS0_11ZodiacSignsE@Base 15.07.90
 _ZN9KHolidays6Zodiac8signNameENS0_11ZodiacSignsE@Base 15.07.90
 _ZN9KHolidays6ZodiacC1ENS0_10ZodiacTypeE@Base 15.07.90
 _ZN9KHolidays6ZodiacC1ERKS0_@Base 15.07.90
 _ZN9KHolidays6ZodiacC2ENS0_10ZodiacTypeE@Base 15.07.90
 _ZN9KHolidays6ZodiacC2ERKS0_@Base 15.07.90
 _ZN9KHolidays6ZodiacD1Ev@Base 15.07.90
 _ZN9KHolidays6ZodiacD2Ev@Base 15.07.90
 _ZN9KHolidays6ZodiacaSERKS0_@Base 15.07.90
 _ZN9KHolidays7HolidayC1ERKS0_@Base 15.07.90
 _ZN9KHolidays7HolidayC1Ev@Base 15.07.90
 _ZN9KHolidays7HolidayC2ERKS0_@Base 15.07.90
 _ZN9KHolidays7HolidayC2Ev@Base 15.07.90
 _ZN9KHolidays7HolidayD1Ev@Base 15.07.90
 _ZN9KHolidays7HolidayD2Ev@Base 15.07.90
 _ZN9KHolidays7HolidayaSERKS0_@Base 15.07.90
 _ZNK9KHolidays13HolidayRegion10regionCodeEv@Base 15.07.90
 _ZNK9KHolidays13HolidayRegion11countryCodeEv@Base 15.07.90
 _ZNK9KHolidays13HolidayRegion11descriptionEv@Base 15.07.90
 _ZNK9KHolidays13HolidayRegion12languageCodeEv@Base 15.07.90
 _ZNK9KHolidays13HolidayRegion4nameEv@Base 15.07.90
 _ZNK9KHolidays13HolidayRegion7isValidEv@Base 15.07.90
 _ZNK9KHolidays13HolidayRegion8holidaysERK5QDateNS_7Holiday12MultidayModeE@Base 15.07.90
 _ZNK9KHolidays13HolidayRegion8holidaysERK5QDateS3_NS_7Holiday12MultidayModeE@Base 15.07.90
 _ZNK9KHolidays13HolidayRegion8holidaysEiRK7QStringNS_7Holiday12MultidayModeE@Base 15.07.90
 _ZNK9KHolidays13HolidayRegion8locationEv@Base 15.07.90
 _ZNK9KHolidays13HolidayRegion9isHolidayERK5QDate@Base 15.07.90
 _ZNK9KHolidays21HolidayRegionSelector10metaObjectEv@Base 15.07.90
 _ZNK9KHolidays21HolidayRegionSelector12searchHiddenEv@Base 15.07.90
 _ZNK9KHolidays21HolidayRegionSelector13selectionModeEv@Base 15.07.90
 _ZNK9KHolidays21HolidayRegionSelector14holidayRegionsEv@Base 15.07.90
 _ZNK9KHolidays21HolidayRegionSelector14languageFilterEv@Base 15.07.90
 _ZNK9KHolidays21HolidayRegionSelector14languageHiddenEv@Base 15.07.90
 _ZNK9KHolidays21HolidayRegionSelector14regionUseFlagsERK7QString@Base 15.07.90
 _ZNK9KHolidays21HolidayRegionSelector14regionUseFlagsEv@Base 15.07.90
 _ZNK9KHolidays21HolidayRegionSelector15selectionStatusERK7QString@Base 15.07.90
 _ZNK9KHolidays21HolidayRegionSelector15selectionStatusEv@Base 15.07.90
 _ZNK9KHolidays21HolidayRegionSelector17descriptionHiddenEv@Base 15.07.90
 _ZNK9KHolidays21HolidayRegionSelector21regionUseFlagsEnabledEv@Base 15.07.90
 _ZNK9KHolidays21HolidayRegionSelector9selectionE6QFlagsINS0_13RegionUseFlagEE@Base 15.07.90
 _ZNK9KHolidays21HolidayRegionSelector9selectionENS0_15SelectionStatusE@Base 15.07.90
 _ZNK9KHolidays6Zodiac10signAtDateERK5QDate@Base 15.07.90
 _ZNK9KHolidays6Zodiac14signNameAtDateERK5QDate@Base 15.07.90
 _ZNK9KHolidays7Holiday15observedEndDateEv@Base 15.07.90
 _ZNK9KHolidays7Holiday17observedStartDateEv@Base 15.07.90
 _ZNK9KHolidays7Holiday4dateEv@Base 15.07.90
 _ZNK9KHolidays7Holiday4textEv@Base 15.07.90
 _ZNK9KHolidays7Holiday7dayTypeEv@Base 15.07.90
 _ZNK9KHolidays7Holiday8durationEv@Base 15.07.90
 _ZNK9KHolidays7Holiday9shortTextEv@Base 15.07.90
 _ZNK9KHolidays7HolidaygtERKS0_@Base 15.07.90
 _ZNK9KHolidays7HolidayltERKS0_@Base 15.07.90
 (optional=templinst)_ZNSt11_Deque_baseIiSaIiEE17_M_initialize_mapEm@Base 15.07.90
 (optional=templinst)_ZNSt11_Deque_baseIiSaIiEED1Ev@Base 15.07.90
 (optional=templinst)_ZNSt11_Deque_baseIiSaIiEED2Ev@Base 15.07.90
 (optional=templinst)_ZNSt5dequeIiSaIiEE17_M_push_front_auxIIRKiEEEvDpOT_@Base 15.07.90
 (optional=templinst)_ZNSt5dequeIiSaIiEE17_M_push_front_auxIJRKiEEEvDpOT_@Base 15.07.90
 (optional=templinst)_ZNSt5dequeIiSaIiEE21_M_default_initializeEv@Base 15.07.90
 _ZTIN9KHolidays21HolidayRegionSelectorE@Base 15.07.90
 _ZTSN9KHolidays21HolidayRegionSelectorE@Base 15.07.90
 _ZTVN9KHolidays21HolidayRegionSelectorE@Base 15.07.90
 (c++)"non-virtual thunk to KHolidays::HolidayRegionSelector::~HolidayRegionSelector()@Base" 15.07.90
